target datalayout = "e-m:e-p270:32:32-p271:32:32-p272:64:64-i64:64-i128:128-f80:128-n8:16:32:64-S128"
target triple = "x86_64-pc-linux-gnu"

%"class.icu_77::UObject" = type { ptr }
%"class.(anonymous namespace)::AvailableLocalesStringEnumeration" = type { %"class.icu_77::StringEnumeration.base", i32, i32, [4 x i8] }
%"class.icu_77::StringEnumeration.base" = type <{ %"class.icu_77::UObject", %"class.icu_77::UnicodeString", [32 x i8], ptr, i32 }>
%"class.icu_77::UnicodeString" = type { %"class.icu_77::Replaceable", %"union.icu_77::UnicodeString::StackBufferOrFields" }
%"class.icu_77::Replaceable" = type { %"class.icu_77::UObject" }
%"union.icu_77::UnicodeString::StackBufferOrFields" = type { %struct.anon.0, [32 x i8] }
%struct.anon.0 = type { i16, i32, i32, ptr }

@_ZN12_GLOBAL__N_122gAvailableLocaleCountsE = internal global [2 x i32] zeroinitializer, align 4

; Function Attrs: inlinehint mustprogress nounwind uwtable
define internal noundef signext i8 @_ZL9U_FAILURE10UErrorCode(i32 noundef %0) #7 {
  %2 = alloca i32, align 4
  store i32 %0, ptr %2, align 4, !tbaa !31
  %3 = load i32, ptr %2, align 4, !tbaa !31
  %4 = icmp sgt i32 %3, 0
  %5 = zext i1 %4 to i8
  ret i8 %5
}

; Function Attrs: mustprogress nounwind uwtable
define internal noundef i32 @_ZNK12_GLOBAL__N_133AvailableLocalesStringEnumeration5countER10UErrorCode(ptr noundef nonnull align 8 dereferenceable(124) %0, ptr noundef nonnull align 4 dereferenceable(4) %1) unnamed_addr #6 align 2 {
  %3 = alloca i32, align 4
  %4 = alloca ptr, align 8
  %5 = alloca ptr, align 8
  store ptr %0, ptr %4, align 8, !tbaa !32
  store ptr %1, ptr %5, align 8, !tbaa !21
  %6 = load ptr, ptr %4, align 8
  %7 = load ptr, ptr %5, align 8, !tbaa !21
  %8 = load i32, ptr %7, align 4, !tbaa !31
  %9 = call noundef signext i8 @_ZL9U_FAILURE10UErrorCode(i32 noundef %8)
  %10 = icmp ne i8 %9, 0
  br i1 %10, label %11, label %12

11:                                               ; preds = %2
  store i32 0, ptr %3, align 4
  br label %26

12:                                               ; preds = %2
  %13 = getelementptr inbounds nuw %"class.(anonymous namespace)::AvailableLocalesStringEnumeration", ptr %6, i32 0, i32 1
  %14 = load i32, ptr %13, align 4, !tbaa !34
  %15 = icmp eq i32 %14, 2
  br i1 %15, label %16, label %20

16:                                               ; preds = %12
  %17 = load i32, ptr @_ZN12_GLOBAL__N_122gAvailableLocaleCountsE, align 4, !tbaa !3
  %18 = load i32, ptr getelementptr inbounds nuw ([2 x i32], ptr @_ZN12_GLOBAL__N_122gAvailableLocaleCountsE, i64 0, i64 1), align 4, !tbaa !3
  %19 = add nsw i32 %17, %18
  store i32 %19, ptr %3, align 4
  br label %26

20:                                               ; preds = %12
  %21 = getelementptr inbounds nuw %"class.(anonymous namespace)::AvailableLocalesStringEnumeration", ptr %6, i32 0, i32 1
  %22 = load i32, ptr %21, align 4, !tbaa !34
  %23 = zext i32 %22 to i64
  %24 = getelementptr inbounds nuw [2 x i32], ptr @_ZN12_GLOBAL__N_122gAvailableLocaleCountsE, i64 0, i64 %23
  %25 = load i32, ptr %24, align 4, !tbaa !3
  store i32 %25, ptr %3, align 4
  br label %26

26:                                               ; preds = %20, %16, %11
  %27 = load i32, ptr %3, align 4
  ret i32 %27
}