; Function Attrs: mustprogress nofree norecurse nosync nounwind willreturn memory(read, inaccessiblemem: none) uwtable
define internal noundef i32 @_ZNK12_GLOBAL__N_133AvailableLocalesStringEnumeration5countER10UErrorCode(ptr noundef nonnull readonly align 8 captures(none) dereferenceable(124) %0, ptr noundef nonnull readonly align 4 captures(none) dereferenceable(4) %1) unnamed_addr #11 align 2 {
  %3 = load i32, ptr %1, align 4, !tbaa !22
  %4 = icmp slt i32 %3, 1
  br i1 %4, label %5, label %17

5:                                                ; preds = %2
  %6 = getelementptr inbounds nuw i8, ptr %0, i64 116
  %7 = load i32, ptr %6, align 4, !tbaa !30
  %8 = icmp eq i32 %7, 2
  br i1 %8, label %9, label %13

9:                                                ; preds = %5
  %10 = load i32, ptr @_ZN12_GLOBAL__N_122gAvailableLocaleCountsE, align 4, !tbaa !10
  %11 = load i32, ptr getelementptr inbounds nuw (i8, ptr @_ZN12_GLOBAL__N_122gAvailableLocaleCountsE, i64 4), align 4, !tbaa !10
  %12 = add nsw i32 %11, %10
  br label %17

13:                                               ; preds = %5
  %14 = zext i32 %7 to i64
  %15 = getelementptr inbounds nuw [2 x i32], ptr @_ZN12_GLOBAL__N_122gAvailableLocaleCountsE, i64 0, i64 %14
  %16 = load i32, ptr %15, align 4, !tbaa !10
  br label %17

17:                                               ; preds = %2, %13, %9
  %.0 = phi i32 [ %12, %9 ], [ %16, %13 ], [ 0, %2 ]
  ret i32 %.0
}